target datalayout = "e-m:e-p270:32:32-p271:32:32-p272:64:64-i64:64-i128:128-f80:128-n8:16:32:64-S128"
target triple = "x86_64-unknown-linux-gnu"

%"class.std::__cxx11::basic_string" = type { %"struct.std::__cxx11::basic_string<char>::_Alloc_hider", i64, %union.anon }
%"struct.std::__cxx11::basic_string<char>::_Alloc_hider" = type { ptr }
%union.anon = type { i64, [8 x i8] }
%"class.std::unique_ptr.59" = type { %"struct.std::__uniq_ptr_data.60" }
%"struct.std::__uniq_ptr_data.60" = type { %"class.std::__uniq_ptr_impl.61" }
%"class.std::__uniq_ptr_impl.61" = type { %"class.std::tuple.62" }
%"class.std::tuple.62" = type { %"struct.std::_Tuple_impl.63" }
%"struct.std::_Tuple_impl.63" = type { %"struct.std::_Head_base.66" }
%"struct.std::_Head_base.66" = type { ptr }
%"class.std::shared_ptr" = type { %"class.std::__shared_ptr" }
%"class.std::__shared_ptr" = type { ptr, %"class.std::__shared_count" }
%"class.std::__shared_count" = type { ptr }
%"class.std::optional.101" = type { %"struct.std::_Optional_base.102" }
%"struct.std::_Optional_base.102" = type { %"struct.std::_Optional_payload.104" }
%"struct.std::_Optional_payload.104" = type { %"struct.std::_Optional_payload_base.105" }
%"struct.std::_Optional_payload_base.105" = type { %"union.std::_Optional_payload_base<bool>::_Storage", i8 }
%"union.std::_Optional_payload_base<bool>::_Storage" = type { %"struct.std::_Optional_payload_base<bool>::_Empty_byte" }
%"struct.std::_Optional_payload_base<bool>::_Empty_byte" = type { i8 }
%"class.std::optional" = type { %"struct.std::_Optional_base" }
%"struct.std::_Optional_base" = type { %"struct.std::_Optional_payload" }
%"struct.std::_Optional_payload" = type { %"struct.std::_Optional_payload.base", [7 x i8] }
%"struct.std::_Optional_payload.base" = type { %"struct.std::_Optional_payload_base.base" }
%"struct.std::_Optional_payload_base.base" = type <{ %"union.std::_Optional_payload_base<std::__cxx11::basic_string<char>>::_Storage", i8 }>
%"union.std::_Optional_payload_base<std::__cxx11::basic_string<char>>::_Storage" = type { %"class.std::__cxx11::basic_string" }
%"class.grpc_core::(anonymous namespace)::GoogleCloud2ProdResolver" = type <{ %"class.grpc_core::Resolver", %"class.grpc_core::RefCountedPtr.91", %"class.std::shared_ptr", %struct.grpc_polling_entity, i8, [7 x i8], %"class.std::unique_ptr.59", %"class.std::__cxx11::basic_string", i8, [7 x i8], %"class.std::unique_ptr.93", %"class.std::optional", %"class.std::unique_ptr.93", %"class.std::optional.101", [6 x i8] }>
%"class.grpc_core::Resolver" = type { %"class.grpc_core::InternallyRefCounted" }
%"class.grpc_core::InternallyRefCounted" = type { %"class.grpc_core::Orphanable", %"class.grpc_core::RefCount" }
%"class.grpc_core::Orphanable" = type { ptr }
%"class.grpc_core::RefCount" = type { %"struct.std::atomic" }
%"struct.std::atomic" = type { %"struct.std::__atomic_base" }
%"struct.std::__atomic_base" = type { i64 }
%"class.grpc_core::RefCountedPtr.91" = type { ptr }
%struct.grpc_polling_entity = type <{ %union.anon.92, i32, [4 x i8] }>
%union.anon.92 = type { ptr }
%"class.std::unique_ptr.93" = type { %"struct.std::__uniq_ptr_data.94" }
%"struct.std::__uniq_ptr_data.94" = type { %"class.std::__uniq_ptr_impl.95" }
%"class.std::__uniq_ptr_impl.95" = type { %"class.std::tuple.96" }
%"class.std::tuple.96" = type { %"struct.std::_Tuple_impl.97" }
%"struct.std::_Tuple_impl.97" = type { %"struct.std::_Head_base.98" }
%"struct.std::_Head_base.98" = type { ptr }

; Function Attrs: mustprogress nounwind uwtable
define linkonce_odr noundef nonnull align 8 dereferenceable(8) ptr @_ZNSt10_Head_baseILm0EPN9grpc_core8ResolverELb0EE7_M_headERKS3_(ptr noundef nonnull align 8 dereferenceable(8) %__b) #5 comdat align 2 {
entry:
  %__b.addr = alloca ptr, align 8
  store ptr %__b, ptr %__b.addr, align 8
  %0 = load ptr, ptr %__b.addr, align 8
  %_M_head_impl = getelementptr inbounds %"struct.std::_Head_base.66", ptr %0, i32 0, i32 0
  ret ptr %_M_head_impl
}

; Function Attrs: mustprogress nounwind uwtable
define linkonce_odr noundef nonnull align 8 dereferenceable(8) ptr @_ZNSt11_Tuple_implILm0EJPN9grpc_core8ResolverENS0_16OrphanableDeleteEEE7_M_headERKS4_(ptr noundef nonnull align 8 dereferenceable(8) %__t) #5 comdat align 2 {
entry:
  %__t.addr = alloca ptr, align 8
  store ptr %__t, ptr %__t.addr, align 8
  %0 = load ptr, ptr %__t.addr, align 8
  %call = call noundef nonnull align 8 dereferenceable(8) ptr @_ZNSt10_Head_baseILm0EPN9grpc_core8ResolverELb0EE7_M_headERKS3_(ptr noundef nonnull align 8 dereferenceable(8) %0) #3
  ret ptr %call
}

; Function Attrs: mustprogress nounwind uwtable
define linkonce_odr noundef nonnull align 8 dereferenceable(8) ptr @_ZSt12__get_helperILm0EPN9grpc_core8ResolverEJNS0_16OrphanableDeleteEEERKT0_RKSt11_Tuple_implIXT_EJS4_DpT1_EE(ptr noundef nonnull align 8 dereferenceable(8) %__t) #5 comdat {
entry:
  %__t.addr = alloca ptr, align 8
  store ptr %__t, ptr %__t.addr, align 8
  %0 = load ptr, ptr %__t.addr, align 8
  %call = call noundef nonnull align 8 dereferenceable(8) ptr @_ZNSt11_Tuple_implILm0EJPN9grpc_core8ResolverENS0_16OrphanableDeleteEEE7_M_headERKS4_(ptr noundef nonnull align 8 dereferenceable(8) %0) #3
  ret ptr %call
}

; Function Attrs: mustprogress nounwind uwtable
define linkonce_odr noundef nonnull align 8 dereferenceable(8) ptr @_ZSt3getILm0EJPN9grpc_core8ResolverENS0_16OrphanableDeleteEEERKNSt13tuple_elementIXT_ESt5tupleIJDpT0_EEE4typeERKS8_(ptr noundef nonnull align 8 dereferenceable(8) %__t) #5 comdat {
entry:
  %__t.addr = alloca ptr, align 8
  store ptr %__t, ptr %__t.addr, align 8
  %0 = load ptr, ptr %__t.addr, align 8
  %call = call noundef nonnull align 8 dereferenceable(8) ptr @_ZSt12__get_helperILm0EPN9grpc_core8ResolverEJNS0_16OrphanableDeleteEEERKT0_RKSt11_Tuple_implIXT_EJS4_DpT1_EE(ptr noundef nonnull align 8 dereferenceable(8) %0) #3
  ret ptr %call
}

; Function Attrs: mustprogress nounwind uwtable
define linkonce_odr noundef ptr @_ZNKSt15__uniq_ptr_implIN9grpc_core8ResolverENS0_16OrphanableDeleteEE6_M_ptrEv(ptr noundef nonnull align 8 dereferenceable(8) %this) #5 comdat align 2 {
entry:
  %this.addr = alloca ptr, align 8
  store ptr %this, ptr %this.addr, align 8
  %this1 = load ptr, ptr %this.addr, align 8
  %_M_t = getelementptr inbounds %"class.std::__uniq_ptr_impl.61", ptr %this1, i32 0, i32 0
  %call = call noundef nonnull align 8 dereferenceable(8) ptr @_ZSt3getILm0EJPN9grpc_core8ResolverENS0_16OrphanableDeleteEEERKNSt13tuple_elementIXT_ESt5tupleIJDpT0_EEE4typeERKS8_(ptr noundef nonnull align 8 dereferenceable(8) %_M_t) #3
  %0 = load ptr, ptr %call, align 8
  ret ptr %0
}

; Function Attrs: mustprogress nounwind uwtable
define linkonce_odr noundef ptr @_ZNKSt10unique_ptrIN9grpc_core8ResolverENS0_16OrphanableDeleteEE3getEv(ptr noundef nonnull align 8 dereferenceable(8) %this) #5 comdat align 2 {
entry:
  %this.addr = alloca ptr, align 8
  store ptr %this, ptr %this.addr, align 8
  %this1 = load ptr, ptr %this.addr, align 8
  %_M_t = getelementptr inbounds %"class.std::unique_ptr.59", ptr %this1, i32 0, i32 0
  %call = call noundef ptr @_ZNKSt15__uniq_ptr_implIN9grpc_core8ResolverENS0_16OrphanableDeleteEE6_M_ptrEv(ptr noundef nonnull align 8 dereferenceable(8) %_M_t) #3
  ret ptr %call
}

; Function Attrs: mustprogress nounwind uwtable
define linkonce_odr noundef zeroext i1 @_ZNKSt10unique_ptrIN9grpc_core8ResolverENS0_16OrphanableDeleteEEcvbEv(ptr noundef nonnull align 8 dereferenceable(8) %this) #5 comdat align 2 {
entry:
  %this.addr = alloca ptr, align 8
  store ptr %this, ptr %this.addr, align 8
  %this1 = load ptr, ptr %this.addr, align 8
  %call = call noundef ptr @_ZNKSt10unique_ptrIN9grpc_core8ResolverENS0_16OrphanableDeleteEE3getEv(ptr noundef nonnull align 8 dereferenceable(8) %this1) #3
  %cmp = icmp eq ptr %call, null
  %cond = select i1 %cmp, i1 false, i1 true
  ret i1 %cond
}

; Function Attrs: mustprogress nounwind uwtable
define linkonce_odr noundef ptr @_ZNKSt10unique_ptrIN9grpc_core8ResolverENS0_16OrphanableDeleteEEptEv(ptr noundef nonnull align 8 dereferenceable(8) %this) #5 comdat align 2 {
entry:
  %this.addr = alloca ptr, align 8
  store ptr %this, ptr %this.addr, align 8
  %this1 = load ptr, ptr %this.addr, align 8
  %call = call noundef ptr @_ZNKSt10unique_ptrIN9grpc_core8ResolverENS0_16OrphanableDeleteEE3getEv(ptr noundef nonnull align 8 dereferenceable(8) %this1) #3
  ret ptr %call
}

; Function Attrs: mustprogress nounwind uwtable
define linkonce_odr noundef zeroext i1 @_ZStneIN9grpc_core8ResolverENS0_16OrphanableDeleteEEbRKSt10unique_ptrIT_T0_EDn(ptr noundef nonnull align 8 dereferenceable(8) %__x, ptr %0) #5 comdat {
entry:
  %__x.addr = alloca ptr, align 8
  %.addr = alloca ptr, align 8
  store ptr %__x, ptr %__x.addr, align 8
  store ptr %0, ptr %.addr, align 8
  %1 = load ptr, ptr %__x.addr, align 8
  %call = call noundef zeroext i1 @_ZNKSt10unique_ptrIN9grpc_core8ResolverENS0_16OrphanableDeleteEEcvbEv(ptr noundef nonnull align 8 dereferenceable(8) %1) #3
  ret i1 %call
}

; Function Attrs: mustprogress uwtable
define internal void @_ZN9grpc_core12_GLOBAL__N_124GoogleCloud2ProdResolver18ResetBackoffLockedEv(ptr noundef nonnull align 8 dereferenceable(170) %this) unnamed_addr #4 align 2 {
entry:
  %this.addr = alloca ptr, align 8
  store ptr %this, ptr %this.addr, align 8
  %this1 = load ptr, ptr %this.addr, align 8
  %child_resolver_ = getelementptr inbounds %"class.grpc_core::(anonymous namespace)::GoogleCloud2ProdResolver", ptr %this1, i32 0, i32 6
  %call = call noundef zeroext i1 @_ZStneIN9grpc_core8ResolverENS0_16OrphanableDeleteEEbRKSt10unique_ptrIT_T0_EDn(ptr noundef nonnull align 8 dereferenceable(8) %child_resolver_, ptr null) #3
  br i1 %call, label %if.then, label %if.end

if.then:                                          ; preds = %entry
  %child_resolver_2 = getelementptr inbounds %"class.grpc_core::(anonymous namespace)::GoogleCloud2ProdResolver", ptr %this1, i32 0, i32 6
  %call3 = call noundef ptr @_ZNKSt10unique_ptrIN9grpc_core8ResolverENS0_16OrphanableDeleteEEptEv(ptr noundef nonnull align 8 dereferenceable(8) %child_resolver_2) #3
  %vtable = load ptr, ptr %call3, align 8
  %vfn = getelementptr inbounds ptr, ptr %vtable, i64 5
  %0 = load ptr, ptr %vfn, align 8
  call void %0(ptr noundef nonnull align 8 dereferenceable(16) %call3)
  br label %if.end

if.end:                                           ; preds = %if.then, %entry
  ret void
}